; Function Attrs: nounwind uwtable
define zeroext i1 @lv_textarea_text_is_selected(ptr noundef readonly captures(address_is_null) %0) local_unnamed_addr #0 {
  %.not = icmp eq ptr %0, null
  br i1 %.not, label %.preheader, label %2

.preheader:                                       ; preds = %1, %.preheader
  br label %.preheader

2:                                                ; preds = %1
  %3 = getelementptr inbounds nuw i8, ptr %0, i64 64
  %4 = load ptr, ptr %3, align 8, !tbaa !22
  %5 = tail call i32 @lv_label_get_text_selection_start(ptr noundef %4) #10
  %.not6 = icmp eq i32 %5, 65535
  br i1 %.not6, label %6, label %9

6:                                                ; preds = %2
  %7 = load ptr, ptr %3, align 8, !tbaa !22
  %8 = tail call i32 @lv_label_get_text_selection_end(ptr noundef %7) #10
  %.not7 = icmp ne i32 %8, 65535
  br label %9

9:                                                ; preds = %6, %2
  %.0 = phi i1 [ true, %2 ], [ %.not7, %6 ]
  ret i1 %.0
}